; Function Attrs: null_pointer_is_valid sspstrong uwtable
define internal fastcc void @dissect_spdy_window_update_payload(ptr noundef %0, ptr noundef %1) unnamed_addr #0 {
  %3 = load i32, ptr @hf_spdy_streamid, align 4
  %4 = tail call i32 @tvb_get_ntohl(ptr noundef %0, i32 noundef 8)
  %5 = tail call ptr @proto_tree_add_item(ptr noundef %1, i32 noundef %3, ptr noundef %0, i32 noundef 8, i32 noundef 4, i32 noundef 0)
  %6 = load i32, ptr @hf_spdy_streamid, align 4
  %7 = icmp eq i32 %3, %6
  br i1 %7, label %8, label %dissect_spdy_stream_id_field.exit

8:                                                ; preds = %2
  %9 = and i32 %4, 2147483647
  tail call void (ptr, ptr, ...) @proto_item_append_text(ptr noundef %1, ptr noundef nonnull @.str.172, i32 noundef %9)
  br label %dissect_spdy_stream_id_field.exit

dissect_spdy_stream_id_field.exit:                ; preds = %2, %8
  %10 = tail call i32 @tvb_get_ntohl(ptr noundef %0, i32 noundef 12)
  %11 = and i32 %10, 2147483647
  %12 = load i32, ptr @hf_spdy_window_update_delta, align 4
  %13 = tail call ptr @proto_tree_add_item(ptr noundef %1, i32 noundef %12, ptr noundef %0, i32 noundef 12, i32 noundef 4, i32 noundef 0)
  tail call void (ptr, ptr, ...) @proto_item_append_text(ptr noundef %1, ptr noundef nonnull @.str.181, i32 noundef %11)
  ret void
}